target datalayout = "e-m:e-p270:32:32-p271:32:32-p272:64:64-i64:64-i128:128-f80:128-n8:16:32:64-S128"
target triple = "x86_64-pc-linux-gnu"

%struct.slurm_cred_ops_t = type { ptr, ptr, ptr, ptr, ptr, ptr }
%struct.identity_t = type { i32, i32, ptr, ptr, ptr, ptr, i32, ptr, ptr, i8 }
%struct.slurm_cred_arg_t = type { %struct.slurm_step_id_msg, i32, i32, ptr, i16, ptr, ptr, ptr, i32, ptr, ptr, ptr, ptr, ptr, ptr, ptr, i16, i64, ptr, ptr, ptr, ptr, ptr, i32, i32, ptr, i32, i16, ptr, ptr, ptr, i16, ptr, i64, ptr, ptr, ptr, i16, ptr, ptr, ptr, ptr, i32, ptr, ptr }
%struct.slurm_step_id_msg = type { i64, i32, i32, i32 }

@enable_nss_slurm = internal global i8 0, align 1
@enable_send_gids = internal global i8 1, align 1
@ops = internal global %struct.slurm_cred_ops_t zeroinitializer, align 8
@.str.14 = private unnamed_addr constant [65 x i8] c"%s: refusing to create job %u credential for invalid user nobody\00", align 1
@__func__.slurm_cred_create = private unnamed_addr constant [18 x i8] c"slurm_cred_create\00", align 1
@.str.15 = private unnamed_addr constant [66 x i8] c"%s: refusing to create job %u credential for invalid group nobody\00", align 1
@.str.16 = private unnamed_addr constant [28 x i8] c"%s: fetch_identity() failed\00", align 1

; Function Attrs: nounwind uwtable
define dso_local ptr @slurm_cred_create(ptr noundef %0, i1 noundef zeroext %1, i16 noundef zeroext %2) #0 {
  %4 = alloca ptr, align 8
  %5 = alloca ptr, align 8
  %6 = alloca i8, align 1
  %7 = alloca i16, align 2
  %8 = alloca ptr, align 8
  %9 = alloca i32, align 4
  %10 = alloca i32, align 4
  %11 = alloca i8, align 1
  %12 = alloca %struct.identity_t, align 8
  %13 = alloca i32, align 4
  store ptr %0, ptr %5, align 8
  %14 = zext i1 %1 to i8
  store i8 %14, ptr %6, align 1
  store i16 %2, ptr %7, align 2
  call void @llvm.lifetime.start.p0(i64 8, ptr %8) #9
  store ptr null, ptr %8, align 8
  call void @llvm.lifetime.start.p0(i64 4, ptr %9) #9
  store i32 0, ptr %9, align 4
  call void @llvm.lifetime.start.p0(i64 4, ptr %10) #9
  store i32 0, ptr %10, align 4
  call void @llvm.lifetime.start.p0(i64 1, ptr %11) #9
  store i8 0, ptr %11, align 1
  call void @llvm.lifetime.start.p0(i64 72, ptr %12) #9
  call void @llvm.memset.p0.i64(ptr align 8 %12, i8 0, i64 72, i1 false)
  %15 = getelementptr inbounds nuw %struct.identity_t, ptr %12, i32 0, i32 0
  %16 = load ptr, ptr %5, align 8
  %17 = getelementptr inbounds nuw %struct.slurm_cred_arg_t, ptr %16, i32 0, i32 1
  %18 = load i32, ptr %17, align 8
  store i32 %18, ptr %15, align 8
  %19 = getelementptr inbounds nuw %struct.identity_t, ptr %12, i32 0, i32 1
  %20 = load ptr, ptr %5, align 8
  %21 = getelementptr inbounds nuw %struct.slurm_cred_arg_t, ptr %20, i32 0, i32 2
  %22 = load i32, ptr %21, align 4
  store i32 %22, ptr %19, align 4
  %23 = getelementptr inbounds nuw %struct.identity_t, ptr %12, i32 0, i32 9
  store i8 1, ptr %23, align 8
  %24 = load ptr, ptr %5, align 8
  %25 = getelementptr inbounds nuw %struct.slurm_cred_arg_t, ptr %24, i32 0, i32 1
  %26 = load i32, ptr %25, align 8
  %27 = icmp eq i32 %26, 99
  br i1 %27, label %28, label %34

28:                                               ; preds = %3
  %29 = load ptr, ptr %5, align 8
  %30 = getelementptr inbounds nuw %struct.slurm_cred_arg_t, ptr %29, i32 0, i32 0
  %31 = getelementptr inbounds nuw %struct.slurm_step_id_msg, ptr %30, i32 0, i32 1
  %32 = load i32, ptr %31, align 8
  %33 = call i32 (ptr, ...) @error(ptr noundef @.str.14, ptr noundef @__func__.slurm_cred_create, i32 noundef %32)
  store ptr null, ptr %4, align 8
  store i32 1, ptr %13, align 4
  br label %149

34:                                               ; preds = %3
  %35 = load ptr, ptr %5, align 8
  %36 = getelementptr inbounds nuw %struct.slurm_cred_arg_t, ptr %35, i32 0, i32 2
  %37 = load i32, ptr %36, align 4
  %38 = icmp eq i32 %37, 99
  br i1 %38, label %39, label %45

39:                                               ; preds = %34
  %40 = load ptr, ptr %5, align 8
  %41 = getelementptr inbounds nuw %struct.slurm_cred_arg_t, ptr %40, i32 0, i32 0
  %42 = getelementptr inbounds nuw %struct.slurm_step_id_msg, ptr %41, i32 0, i32 1
  %43 = load i32, ptr %42, align 8
  %44 = call i32 (ptr, ...) @error(ptr noundef @.str.15, ptr noundef @__func__.slurm_cred_create, i32 noundef %43)
  store ptr null, ptr %4, align 8
  store i32 1, ptr %13, align 4
  br label %149

45:                                               ; preds = %34
  %46 = load ptr, ptr %5, align 8
  %47 = getelementptr inbounds nuw %struct.slurm_cred_arg_t, ptr %46, i32 0, i32 7
  %48 = load ptr, ptr %47, align 8
  %49 = icmp ne ptr %48, null
  br i1 %49, label %50, label %80

50:                                               ; preds = %45
  store i32 0, ptr %9, align 4
  br label %51

51:                                               ; preds = %74, %50
  %52 = load i32, ptr %9, align 4
  %53 = load ptr, ptr %5, align 8
  %54 = getelementptr inbounds nuw %struct.slurm_cred_arg_t, ptr %53, i32 0, i32 24
  %55 = load i32, ptr %54, align 4
  %56 = icmp ult i32 %52, %55
  br i1 %56, label %57, label %77

57:                                               ; preds = %51
  %58 = load ptr, ptr %5, align 8
  %59 = getelementptr inbounds nuw %struct.slurm_cred_arg_t, ptr %58, i32 0, i32 7
  %60 = load ptr, ptr %59, align 8
  %61 = load i32, ptr %9, align 4
  %62 = sext i32 %61 to i64
  %63 = getelementptr inbounds i32, ptr %60, i64 %62
  %64 = load i32, ptr %63, align 4
  %65 = load i32, ptr %10, align 4
  %66 = add i32 %65, %64
  store i32 %66, ptr %10, align 4
  %67 = load i32, ptr %10, align 4
  %68 = load ptr, ptr %5, align 8
  %69 = getelementptr inbounds nuw %struct.slurm_cred_arg_t, ptr %68, i32 0, i32 24
  %70 = load i32, ptr %69, align 4
  %71 = icmp uge i32 %67, %70
  br i1 %71, label %72, label %73

72:                                               ; preds = %57
  br label %77

73:                                               ; preds = %57
  br label %74

74:                                               ; preds = %73
  %75 = load i32, ptr %9, align 4
  %76 = add nsw i32 %75, 1
  store i32 %76, ptr %9, align 4
  br label %51, !llvm.loop !8

77:                                               ; preds = %72, %51
  %78 = load i32, ptr %9, align 4
  %79 = add nsw i32 %78, 1
  store i32 %79, ptr %9, align 4
  br label %80

80:                                               ; preds = %77, %45
  %81 = load i32, ptr %9, align 4
  %82 = trunc i32 %81 to i16
  %83 = load ptr, ptr %5, align 8
  %84 = getelementptr inbounds nuw %struct.slurm_cred_arg_t, ptr %83, i32 0, i32 4
  store i16 %82, ptr %84, align 8
  %85 = load ptr, ptr %5, align 8
  %86 = getelementptr inbounds nuw %struct.slurm_cred_arg_t, ptr %85, i32 0, i32 3
  %87 = load ptr, ptr %86, align 8
  %88 = icmp ne ptr %87, null
  br i1 %88, label %111, label %89

89:                                               ; preds = %80
  %90 = load i8, ptr @enable_nss_slurm, align 1, !range !11, !noundef !12
  %91 = trunc i8 %90 to i1
  br i1 %91, label %95, label %92

92:                                               ; preds = %89
  %93 = load i8, ptr @enable_send_gids, align 1, !range !11, !noundef !12
  %94 = trunc i8 %93 to i1
  br i1 %94, label %95, label %111

95:                                               ; preds = %92, %89
  store i8 1, ptr %11, align 1
  %96 = load ptr, ptr %5, align 8
  %97 = getelementptr inbounds nuw %struct.slurm_cred_arg_t, ptr %96, i32 0, i32 1
  %98 = load i32, ptr %97, align 8
  %99 = load ptr, ptr %5, align 8
  %100 = getelementptr inbounds nuw %struct.slurm_cred_arg_t, ptr %99, i32 0, i32 2
  %101 = load i32, ptr %100, align 4
  %102 = load i8, ptr @enable_nss_slurm, align 1, !range !11, !noundef !12
  %103 = trunc i8 %102 to i1
  %104 = call ptr @fetch_identity(i32 noundef %98, i32 noundef %101, i1 noundef zeroext %103)
  %105 = load ptr, ptr %5, align 8
  %106 = getelementptr inbounds nuw %struct.slurm_cred_arg_t, ptr %105, i32 0, i32 3
  store ptr %104, ptr %106, align 8
  %107 = icmp ne ptr %104, null
  br i1 %107, label %110, label %108

108:                                              ; preds = %95
  %109 = call i32 (ptr, ...) @error(ptr noundef @.str.16, ptr noundef @__func__.slurm_cred_create)
  store ptr null, ptr %4, align 8
  store i32 1, ptr %13, align 4
  br label %149

110:                                              ; preds = %95
  br label %120

111:                                              ; preds = %92, %80
  %112 = load ptr, ptr %5, align 8
  %113 = getelementptr inbounds nuw %struct.slurm_cred_arg_t, ptr %112, i32 0, i32 3
  %114 = load ptr, ptr %113, align 8
  %115 = icmp ne ptr %114, null
  br i1 %115, label %119, label %116

116:                                              ; preds = %111
  %117 = load ptr, ptr %5, align 8
  %118 = getelementptr inbounds nuw %struct.slurm_cred_arg_t, ptr %117, i32 0, i32 3
  store ptr %12, ptr %118, align 8
  br label %119

119:                                              ; preds = %116, %111
  br label %120

120:                                              ; preds = %119, %110
  %121 = load ptr, ptr %5, align 8
  %122 = getelementptr inbounds nuw %struct.slurm_cred_arg_t, ptr %121, i32 0, i32 3
  %123 = load ptr, ptr %122, align 8
  call void @identity_debug2(ptr noundef %123, ptr noundef @__func__.slurm_cred_create)
  %124 = load ptr, ptr @ops, align 8
  %125 = load ptr, ptr %5, align 8
  %126 = load i8, ptr %6, align 1, !range !11, !noundef !12
  %127 = trunc i8 %126 to i1
  %128 = load i16, ptr %7, align 2
  %129 = call ptr %124(ptr noundef %125, i1 noundef zeroext %127, i16 noundef zeroext %128)
  store ptr %129, ptr %8, align 8
  %130 = load i8, ptr %11, align 1, !range !11, !noundef !12
  %131 = trunc i8 %130 to i1
  br i1 %131, label %132, label %147

132:                                              ; preds = %120
  br label %133

133:                                              ; preds = %132
  %134 = load ptr, ptr %5, align 8
  %135 = getelementptr inbounds nuw %struct.slurm_cred_arg_t, ptr %134, i32 0, i32 3
  %136 = load ptr, ptr %135, align 8
  %137 = icmp ne ptr %136, null
  br i1 %137, label %138, label %142

138:                                              ; preds = %133
  %139 = load ptr, ptr %5, align 8
  %140 = getelementptr inbounds nuw %struct.slurm_cred_arg_t, ptr %139, i32 0, i32 3
  %141 = load ptr, ptr %140, align 8
  call void @destroy_identity(ptr noundef %141)
  br label %142

142:                                              ; preds = %138, %133
  %143 = load ptr, ptr %5, align 8
  %144 = getelementptr inbounds nuw %struct.slurm_cred_arg_t, ptr %143, i32 0, i32 3
  store ptr null, ptr %144, align 8
  br label %145

145:                                              ; preds = %142
  br label %146

146:                                              ; preds = %145
  br label %147

147:                                              ; preds = %146, %120
  %148 = load ptr, ptr %8, align 8
  store ptr %148, ptr %4, align 8
  store i32 1, ptr %13, align 4
  br label %149

149:                                              ; preds = %147, %108, %39, %28
  call void @llvm.lifetime.end.p0(i64 72, ptr %12) #9
  call void @llvm.lifetime.end.p0(i64 1, ptr %11) #9
  call void @llvm.lifetime.end.p0(i64 4, ptr %10) #9
  call void @llvm.lifetime.end.p0(i64 4, ptr %9) #9
  call void @llvm.lifetime.end.p0(i64 8, ptr %8) #9
  %150 = load ptr, ptr %4, align 8
  ret ptr %150
}