; Function Attrs: nounwind uwtable
define dso_local ptr @slurm_cred_create(ptr noundef %0, i1 noundef zeroext %1, i16 noundef zeroext %2) local_unnamed_addr #0 {
  %4 = alloca %struct.identity_t, align 8
  call void @llvm.lifetime.start.p0(i64 72, ptr nonnull %4) #11
  %5 = getelementptr inbounds nuw i8, ptr %4, i64 8
  call void @llvm.memset.p0.i64(ptr noundef nonnull align 8 dereferenceable(72) %5, i8 0, i64 64, i1 false)
  %6 = getelementptr inbounds nuw i8, ptr %0, i64 24
  %7 = load i32, ptr %6, align 8
  store i32 %7, ptr %4, align 8
  %8 = getelementptr inbounds nuw i8, ptr %4, i64 4
  %9 = getelementptr inbounds nuw i8, ptr %0, i64 28
  %10 = load i32, ptr %9, align 4
  store i32 %10, ptr %8, align 4
  %11 = getelementptr inbounds nuw i8, ptr %4, i64 64
  store i8 1, ptr %11, align 8
  %12 = icmp eq i32 %7, 99
  br i1 %12, label %13, label %17

13:                                               ; preds = %3
  %14 = getelementptr inbounds nuw i8, ptr %0, i64 8
  %15 = load i32, ptr %14, align 8
  %16 = tail call i32 (ptr, ...) @error(ptr noundef nonnull @.str.14, ptr noundef nonnull @__func__.slurm_cred_create, i32 noundef %15) #11
  br label %53

17:                                               ; preds = %3
  %18 = icmp eq i32 %10, 99
  br i1 %18, label %19, label %23

19:                                               ; preds = %17
  %20 = getelementptr inbounds nuw i8, ptr %0, i64 8
  %21 = load i32, ptr %20, align 8
  %22 = tail call i32 (ptr, ...) @error(ptr noundef nonnull @.str.15, ptr noundef nonnull @__func__.slurm_cred_create, i32 noundef %21) #11
  br label %53

23:                                               ; preds = %17
  %24 = getelementptr inbounds nuw i8, ptr %0, i64 64
  %25 = load ptr, ptr %24, align 8
  %.not = icmp eq ptr %25, null
  br i1 %.not, label %._crit_edge, label %.preheader

.preheader:                                       ; preds = %23
  %26 = getelementptr inbounds nuw i8, ptr %0, i64 196
  %27 = load i32, ptr %26, align 4
  %.not52 = icmp eq i32 %27, 0
  br i1 %.not52, label %._crit_edge, label %.lr.ph.preheader

.lr.ph.preheader:                                 ; preds = %.preheader
  %wide.trip.count = zext i32 %27 to i64
  br label %.lr.ph

.lr.ph:                                           ; preds = %.lr.ph.preheader, %31
  %indvars.iv = phi i64 [ 0, %.lr.ph.preheader ], [ %indvars.iv.next, %31 ]
  %.03349 = phi i32 [ 0, %.lr.ph.preheader ], [ %30, %31 ]
  %28 = getelementptr inbounds nuw i32, ptr %25, i64 %indvars.iv
  %29 = load i32, ptr %28, align 4
  %30 = add i32 %29, %.03349
  %.not41 = icmp ult i32 %30, %27
  br i1 %.not41, label %31, label %._crit_edge.loopexit.split.loop.exit

31:                                               ; preds = %.lr.ph
  %indvars.iv.next = add nuw nsw i64 %indvars.iv, 1
  %exitcond.not = icmp eq i64 %indvars.iv.next, %wide.trip.count
  br i1 %exitcond.not, label %._crit_edge.loopexit, label %.lr.ph, !llvm.loop !8

._crit_edge.loopexit.split.loop.exit:             ; preds = %.lr.ph
  %32 = trunc nuw nsw i64 %indvars.iv to i32
  br label %._crit_edge.loopexit

._crit_edge.loopexit:                             ; preds = %31, %._crit_edge.loopexit.split.loop.exit
  %.1.lcssa.ph = phi i32 [ %32, %._crit_edge.loopexit.split.loop.exit ], [ %27, %31 ]
  %33 = trunc i32 %.1.lcssa.ph to i16
  %34 = add i16 %33, 1
  br label %._crit_edge

._crit_edge:                                      ; preds = %.preheader, %._crit_edge.loopexit, %23
  %.034 = phi i16 [ 0, %23 ], [ 1, %.preheader ], [ %34, %._crit_edge.loopexit ]
  %35 = getelementptr inbounds nuw i8, ptr %0, i64 40
  store i16 %.034, ptr %35, align 8
  %36 = getelementptr inbounds nuw i8, ptr %0, i64 32
  %37 = load ptr, ptr %36, align 8
  %.not42 = icmp eq ptr %37, null
  br i1 %.not42, label %38, label %45

38:                                               ; preds = %._crit_edge
  %.b3943 = load i1, ptr @enable_nss_slurm, align 1
  br i1 %.b3943, label %40, label %39

39:                                               ; preds = %38
  %.b40 = load i1, ptr @enable_send_gids, align 1
  br i1 %.b40, label %44, label %40

40:                                               ; preds = %39, %38
  %41 = tail call ptr @fetch_identity(i32 noundef %7, i32 noundef %10, i1 noundef zeroext %.b3943) #11
  store ptr %41, ptr %36, align 8
  %.not45 = icmp eq ptr %41, null
  br i1 %.not45, label %42, label %45

42:                                               ; preds = %40
  %43 = tail call i32 (ptr, ...) @error(ptr noundef nonnull @.str.16, ptr noundef nonnull @__func__.slurm_cred_create) #11
  br label %53

44:                                               ; preds = %39
  store ptr %4, ptr %36, align 8
  br label %45

45:                                               ; preds = %._crit_edge, %44, %40
  %46 = phi ptr [ %4, %44 ], [ %41, %40 ], [ %37, %._crit_edge ]
  %.0 = phi i1 [ false, %44 ], [ true, %40 ], [ false, %._crit_edge ]
  call void @identity_debug2(ptr noundef nonnull %46, ptr noundef nonnull @__func__.slurm_cred_create) #11
  %47 = load ptr, ptr @ops, align 8
  %48 = call ptr %47(ptr noundef nonnull %0, i1 noundef zeroext %1, i16 noundef zeroext %2) #11
  br i1 %.0, label %49, label %53

49:                                               ; preds = %45
  %50 = load ptr, ptr %36, align 8
  %.not47 = icmp eq ptr %50, null
  br i1 %.not47, label %52, label %51

51:                                               ; preds = %49
  call void @destroy_identity(ptr noundef nonnull %50) #11
  br label %52

52:                                               ; preds = %51, %49
  store ptr null, ptr %36, align 8
  br label %53

53:                                               ; preds = %45, %52, %42, %19, %13
  %.035 = phi ptr [ null, %13 ], [ null, %19 ], [ null, %42 ], [ %48, %52 ], [ %48, %45 ]
  call void @llvm.lifetime.end.p0(i64 72, ptr nonnull %4) #11
  ret ptr %.035
}